target datalayout = "e-m:e-p270:32:32-p271:32:32-p272:64:64-i64:64-i128:128-f80:128-n8:16:32:64-S128"
target triple = "x86_64-pc-linux-gnu"

%struct.pmix_value = type { i16, %union.anon }
%union.anon = type { %struct.pmix_envar_t }
%struct.pmix_envar_t = type { ptr, ptr, i8 }
%struct.pmix_info = type { [512 x i8], i32, %struct.pmix_value }
%struct.pmix_query = type { ptr, ptr, i64 }

; Function Attrs: inlinehint nounwind uwtable
define internal void @pmix_strncpy(ptr noundef %0, ptr noundef %1, i64 noundef %2) #3 {
  %4 = alloca ptr, align 8
  %5 = alloca ptr, align 8
  %6 = alloca i64, align 8
  %7 = alloca i64, align 8
  store ptr %0, ptr %4, align 8, !tbaa !33
  store ptr %1, ptr %5, align 8, !tbaa !33
  store i64 %2, ptr %6, align 8, !tbaa !25
  call void @llvm.lifetime.start.p0(i64 8, ptr %7) #11
  store i64 0, ptr %7, align 8, !tbaa !25
  br label %8

8:                                                ; preds = %22, %3
  %9 = load i64, ptr %7, align 8, !tbaa !25
  %10 = load i64, ptr %6, align 8, !tbaa !25
  %11 = icmp ult i64 %9, %10
  br i1 %11, label %12, label %29

12:                                               ; preds = %8
  %13 = load ptr, ptr %5, align 8, !tbaa !33
  %14 = load i8, ptr %13, align 1, !tbaa !59
  %15 = load ptr, ptr %4, align 8, !tbaa !33
  store i8 %14, ptr %15, align 1, !tbaa !59
  %16 = load ptr, ptr %5, align 8, !tbaa !33
  %17 = load i8, ptr %16, align 1, !tbaa !59
  %18 = sext i8 %17 to i32
  %19 = icmp eq i32 0, %18
  br i1 %19, label %20, label %21

20:                                               ; preds = %12
  br label %29

21:                                               ; preds = %12
  br label %22

22:                                               ; preds = %21
  %23 = load i64, ptr %7, align 8, !tbaa !25
  %24 = add i64 %23, 1
  store i64 %24, ptr %7, align 8, !tbaa !25
  %25 = load ptr, ptr %5, align 8, !tbaa !33
  %26 = getelementptr inbounds nuw i8, ptr %25, i32 1
  store ptr %26, ptr %5, align 8, !tbaa !33
  %27 = load ptr, ptr %4, align 8, !tbaa !33
  %28 = getelementptr inbounds nuw i8, ptr %27, i32 1
  store ptr %28, ptr %4, align 8, !tbaa !33
  br label %8, !llvm.loop !60

29:                                               ; preds = %20, %8
  %30 = load ptr, ptr %4, align 8, !tbaa !33
  store i8 0, ptr %30, align 1, !tbaa !59
  call void @llvm.lifetime.end.p0(i64 8, ptr %7) #11
  ret void
}

; Function Attrs: nounwind uwtable
define i32 @pmix_bfrops_base_copy_info(ptr noundef %0, ptr noundef %1, i16 noundef zeroext %2) #0 {
  %4 = alloca ptr, align 8
  %5 = alloca ptr, align 8
  %6 = alloca i16, align 2
  store ptr %0, ptr %4, align 8, !tbaa !53
  store ptr %1, ptr %5, align 8, !tbaa !55
  store i16 %2, ptr %6, align 2, !tbaa !9
  %7 = call noalias ptr @malloc(i64 noundef 552) #12
  %8 = load ptr, ptr %4, align 8, !tbaa !53
  store ptr %7, ptr %8, align 8, !tbaa !55
  %9 = load ptr, ptr %4, align 8, !tbaa !53
  %10 = load ptr, ptr %9, align 8, !tbaa !55
  %11 = getelementptr inbounds nuw %struct.pmix_info, ptr %10, i32 0, i32 0
  %12 = getelementptr inbounds [512 x i8], ptr %11, i64 0, i64 0
  %13 = load ptr, ptr %5, align 8, !tbaa !55
  %14 = getelementptr inbounds nuw %struct.pmix_info, ptr %13, i32 0, i32 0
  %15 = getelementptr inbounds [512 x i8], ptr %14, i64 0, i64 0
  call void @pmix_strncpy(ptr noundef %12, ptr noundef %15, i64 noundef 511)
  %16 = load ptr, ptr %5, align 8, !tbaa !55
  %17 = getelementptr inbounds nuw %struct.pmix_info, ptr %16, i32 0, i32 1
  %18 = load i32, ptr %17, align 8, !tbaa !57
  %19 = load ptr, ptr %4, align 8, !tbaa !53
  %20 = load ptr, ptr %19, align 8, !tbaa !55
  %21 = getelementptr inbounds nuw %struct.pmix_info, ptr %20, i32 0, i32 1
  store i32 %18, ptr %21, align 8, !tbaa !57
  %22 = load ptr, ptr %4, align 8, !tbaa !53
  %23 = load ptr, ptr %22, align 8, !tbaa !55
  %24 = getelementptr inbounds nuw %struct.pmix_info, ptr %23, i32 0, i32 2
  %25 = load ptr, ptr %5, align 8, !tbaa !55
  %26 = getelementptr inbounds nuw %struct.pmix_info, ptr %25, i32 0, i32 2
  %27 = call i32 @pmix_bfrops_base_value_xfer(ptr noundef %24, ptr noundef %26)
  ret i32 %27
}

; Function Attrs: nounwind uwtable
define i32 @pmix_bfrops_base_copy_query(ptr noundef %0, ptr noundef %1, i16 noundef zeroext %2) #0 {
  %4 = alloca i32, align 4
  %5 = alloca ptr, align 8
  %6 = alloca ptr, align 8
  %7 = alloca i16, align 2
  %8 = alloca i32, align 4
  %9 = alloca i32, align 4
  store ptr %0, ptr %5, align 8, !tbaa !205
  store ptr %1, ptr %6, align 8, !tbaa !137
  store i16 %2, ptr %7, align 2, !tbaa !9
  call void @llvm.lifetime.start.p0(i64 4, ptr %8) #11
  %10 = call noalias ptr @malloc(i64 noundef 24) #12
  %11 = load ptr, ptr %5, align 8, !tbaa !205
  store ptr %10, ptr %11, align 8, !tbaa !137
  %12 = load ptr, ptr %6, align 8, !tbaa !137
  %13 = getelementptr inbounds nuw %struct.pmix_query, ptr %12, i32 0, i32 0
  %14 = load ptr, ptr %13, align 8, !tbaa !139
  %15 = icmp ne ptr null, %14
  br i1 %15, label %16, label %24

16:                                               ; preds = %3
  %17 = load ptr, ptr %6, align 8, !tbaa !137
  %18 = getelementptr inbounds nuw %struct.pmix_query, ptr %17, i32 0, i32 0
  %19 = load ptr, ptr %18, align 8, !tbaa !139
  %20 = call ptr @PMIx_Argv_copy(ptr noundef %19)
  %21 = load ptr, ptr %5, align 8, !tbaa !205
  %22 = load ptr, ptr %21, align 8, !tbaa !137
  %23 = getelementptr inbounds nuw %struct.pmix_query, ptr %22, i32 0, i32 0
  store ptr %20, ptr %23, align 8, !tbaa !139
  br label %24

24:                                               ; preds = %16, %3
  %25 = load ptr, ptr %6, align 8, !tbaa !137
  %26 = getelementptr inbounds nuw %struct.pmix_query, ptr %25, i32 0, i32 2
  %27 = load i64, ptr %26, align 8, !tbaa !142
  %28 = load ptr, ptr %5, align 8, !tbaa !205
  %29 = load ptr, ptr %28, align 8, !tbaa !137
  %30 = getelementptr inbounds nuw %struct.pmix_query, ptr %29, i32 0, i32 2
  store i64 %27, ptr %30, align 8, !tbaa !142
  %31 = load ptr, ptr %6, align 8, !tbaa !137
  %32 = getelementptr inbounds nuw %struct.pmix_query, ptr %31, i32 0, i32 1
  %33 = load ptr, ptr %32, align 8, !tbaa !141
  %34 = icmp ne ptr null, %33
  br i1 %34, label %35, label %49

35:                                               ; preds = %24
  %36 = load ptr, ptr %5, align 8, !tbaa !205
  %37 = load ptr, ptr %36, align 8, !tbaa !137
  %38 = getelementptr inbounds nuw %struct.pmix_query, ptr %37, i32 0, i32 1
  %39 = load ptr, ptr %6, align 8, !tbaa !137
  %40 = getelementptr inbounds nuw %struct.pmix_query, ptr %39, i32 0, i32 1
  %41 = load ptr, ptr %40, align 8, !tbaa !141
  %42 = call i32 @pmix_bfrops_base_copy_info(ptr noundef %38, ptr noundef %41, i16 noundef zeroext 24)
  store i32 %42, ptr %8, align 4, !tbaa !18
  %43 = icmp ne i32 0, %42
  br i1 %43, label %44, label %48

44:                                               ; preds = %35
  %45 = load ptr, ptr %5, align 8, !tbaa !205
  %46 = load ptr, ptr %45, align 8, !tbaa !137
  call void @free(ptr noundef %46) #11
  %47 = load i32, ptr %8, align 4, !tbaa !18
  store i32 %47, ptr %4, align 4
  store i32 1, ptr %9, align 4
  br label %50

48:                                               ; preds = %35
  br label %49

49:                                               ; preds = %48, %24
  store i32 0, ptr %4, align 4
  store i32 1, ptr %9, align 4
  br label %50

50:                                               ; preds = %49, %44
  call void @llvm.lifetime.end.p0(i64 4, ptr %8) #11
  %51 = load i32, ptr %4, align 4
  ret i32 %51
}