; Function Attrs: nounwind uwtable
define i32 @pmix_bfrops_base_copy_query(ptr noundef captures(none) initializes((0, 8)) %0, ptr noundef readonly captures(none) %1, i16 noundef zeroext %2) local_unnamed_addr #0 {
  %4 = tail call noalias dereferenceable_or_null(24) ptr @malloc(i64 noundef 24) #25
  store ptr %4, ptr %0, align 8, !tbaa !210
  %5 = load ptr, ptr %1, align 8, !tbaa !114
  %.not = icmp eq ptr %5, null
  br i1 %.not, label %9, label %6

6:                                                ; preds = %3
  %7 = tail call ptr @PMIx_Argv_copy(ptr noundef nonnull %5) #23
  %8 = load ptr, ptr %0, align 8, !tbaa !210
  store ptr %7, ptr %8, align 8, !tbaa !114
  br label %9

9:                                                ; preds = %6, %3
  %10 = phi ptr [ %8, %6 ], [ %4, %3 ]
  %11 = getelementptr inbounds nuw i8, ptr %1, i64 16
  %12 = load i64, ptr %11, align 8, !tbaa !117
  %13 = getelementptr inbounds nuw i8, ptr %10, i64 16
  store i64 %12, ptr %13, align 8, !tbaa !117
  %14 = getelementptr inbounds nuw i8, ptr %1, i64 8
  %15 = load ptr, ptr %14, align 8, !tbaa !116
  %.not14 = icmp eq ptr %15, null
  br i1 %.not14, label %35, label %16

16:                                               ; preds = %9
  %17 = getelementptr inbounds nuw i8, ptr %10, i64 8
  %18 = tail call noalias dereferenceable_or_null(552) ptr @malloc(i64 noundef 552) #25
  store ptr %18, ptr %17, align 8, !tbaa !46
  br label %19

19:                                               ; preds = %22, %16
  %.012.i.i = phi i64 [ 0, %16 ], [ %23, %22 ]
  %.0811.i.i = phi ptr [ %18, %16 ], [ %25, %22 ]
  %.0910.i.i = phi ptr [ %15, %16 ], [ %24, %22 ]
  %20 = load i8, ptr %.0910.i.i, align 1, !tbaa !48
  store i8 %20, ptr %.0811.i.i, align 1, !tbaa !48
  %21 = icmp eq i8 %20, 0
  br i1 %21, label %pmix_bfrops_base_copy_info.exit, label %22

22:                                               ; preds = %19
  %23 = add nuw nsw i64 %.012.i.i, 1
  %24 = getelementptr inbounds nuw i8, ptr %.0910.i.i, i64 1
  %25 = getelementptr inbounds nuw i8, ptr %.0811.i.i, i64 1
  %exitcond.not.i.i = icmp eq i64 %23, 511
  br i1 %exitcond.not.i.i, label %pmix_bfrops_base_copy_info.exit, label %19, !llvm.loop !49

pmix_bfrops_base_copy_info.exit:                  ; preds = %19, %22
  %.08.lcssa.i.i = phi ptr [ %.0811.i.i, %19 ], [ %25, %22 ]
  store i8 0, ptr %.08.lcssa.i.i, align 1, !tbaa !48
  %26 = getelementptr inbounds nuw i8, ptr %15, i64 512
  %27 = load i32, ptr %26, align 8, !tbaa !50
  %28 = load ptr, ptr %17, align 8, !tbaa !46
  %29 = getelementptr inbounds nuw i8, ptr %28, i64 512
  store i32 %27, ptr %29, align 8, !tbaa !50
  %30 = getelementptr inbounds nuw i8, ptr %28, i64 520
  %31 = getelementptr inbounds nuw i8, ptr %15, i64 520
  %32 = tail call i32 @pmix_bfrops_base_value_xfer(ptr noundef nonnull %30, ptr noundef nonnull %31) #23
  %.not15 = icmp eq i32 %32, 0
  br i1 %.not15, label %35, label %33

33:                                               ; preds = %pmix_bfrops_base_copy_info.exit
  %34 = load ptr, ptr %0, align 8, !tbaa !210
  tail call void @free(ptr noundef %34) #23
  br label %35

35:                                               ; preds = %9, %pmix_bfrops_base_copy_info.exit, %33
  %.0 = phi i32 [ %32, %33 ], [ 0, %pmix_bfrops_base_copy_info.exit ], [ 0, %9 ]
  ret i32 %.0
}